target datalayout = "e-m:e-p270:32:32-p271:32:32-p272:64:64-i64:64-i128:128-f80:128-n8:16:32:64-S128"
target triple = "x86_64-pc-linux-gnu"

%struct.rb_data_type_struct = type { ptr, %struct.anon, ptr, ptr, i64 }
%struct.anon = type { ptr, ptr, ptr, ptr, [1 x ptr] }
%struct.asn1_string_st = type { i32, i32, ptr, i64 }

@ossl_x509name_type = internal constant %struct.rb_data_type_struct { ptr @.str.30, %struct.anon { ptr null, ptr @ossl_x509name_free, ptr null, ptr null, [1 x ptr] zeroinitializer }, ptr null, ptr null, i64 33 }, align 8
@eX509NameError = internal global i64 0, align 8
@rb_eRuntimeError = external global i64, align 8
@.str = private unnamed_addr constant [25 x i8] c"Name wasn't initialized.\00", align 1

; Function Attrs: inlinehint nounwind sspstrong willreturn memory(none) uwtable
define internal i64 @RB_INT2FIX(i64 noundef %0) #6 {
  %2 = alloca i64, align 8
  %3 = alloca i64, align 8
  %4 = alloca i64, align 8
  %5 = alloca i64, align 8
  %6 = alloca i64, align 8
  %7 = alloca i64, align 8
  store i64 %0, ptr %2, align 8, !tbaa !11
  call void @llvm.lifetime.start.p0(i64 8, ptr %3) #18
  %8 = load i64, ptr %2, align 8, !tbaa !11
  store i64 %8, ptr %3, align 8, !tbaa !11
  call void @llvm.lifetime.start.p0(i64 8, ptr %4) #18
  %9 = load i64, ptr %3, align 8, !tbaa !11
  %10 = shl i64 %9, 1
  %11 = add i64 %10, 1
  store i64 %11, ptr %4, align 8, !tbaa !11
  call void @llvm.lifetime.start.p0(i64 8, ptr %5) #18
  %12 = load i64, ptr %4, align 8, !tbaa !11
  store i64 %12, ptr %5, align 8, !tbaa !11
  call void @llvm.lifetime.start.p0(i64 8, ptr %6) #18
  %13 = load i64, ptr %5, align 8, !tbaa !11
  store i64 %13, ptr %6, align 8, !tbaa !11
  call void @llvm.lifetime.start.p0(i64 8, ptr %7) #18
  %14 = load i64, ptr %6, align 8, !tbaa !11
  store i64 %14, ptr %7, align 8, !tbaa !11
  %15 = load i64, ptr %7, align 8, !tbaa !11
  call void @llvm.lifetime.end.p0(i64 8, ptr %7) #18
  call void @llvm.lifetime.end.p0(i64 8, ptr %6) #18
  call void @llvm.lifetime.end.p0(i64 8, ptr %5) #18
  call void @llvm.lifetime.end.p0(i64 8, ptr %4) #18
  call void @llvm.lifetime.end.p0(i64 8, ptr %3) #18
  ret i64 %15
}

; Function Attrs: inlinehint nounwind sspstrong uwtable
define internal i64 @rb_int2num_inline(i32 noundef %0) #4 {
  %2 = alloca i64, align 8
  %3 = alloca i32, align 4
  store i32 %0, ptr %3, align 4, !tbaa !17
  %4 = load i32, ptr %3, align 4, !tbaa !17
  %5 = sext i32 %4 to i64
  %6 = icmp slt i64 %5, 4611686018427387904
  br i1 %6, label %7, label %15

7:                                                ; preds = %1
  %8 = load i32, ptr %3, align 4, !tbaa !17
  %9 = sext i32 %8 to i64
  %10 = icmp sge i64 %9, -4611686018427387904
  br i1 %10, label %11, label %15

11:                                               ; preds = %7
  %12 = load i32, ptr %3, align 4, !tbaa !17
  %13 = sext i32 %12 to i64
  %14 = call i64 @RB_INT2FIX(i64 noundef %13) #20
  store i64 %14, ptr %2, align 8
  br label %19

15:                                               ; preds = %7, %1
  %16 = load i32, ptr %3, align 4, !tbaa !17
  %17 = sext i32 %16 to i64
  %18 = call i64 @rb_int2big(i64 noundef %17)
  store i64 %18, ptr %2, align 8
  br label %19

19:                                               ; preds = %15, %11
  %20 = load i64, ptr %2, align 8
  ret i64 %20
}

; Function Attrs: nounwind sspstrong uwtable
define internal i64 @ossl_x509name_to_a(i64 noundef %0) #0 {
  %2 = alloca i64, align 8
  %3 = alloca ptr, align 8
  %4 = alloca ptr, align 8
  %5 = alloca i32, align 4
  %6 = alloca i32, align 4
  %7 = alloca i32, align 4
  %8 = alloca [512 x i8], align 16
  %9 = alloca ptr, align 8
  %10 = alloca i64, align 8
  %11 = alloca i64, align 8
  %12 = alloca i64, align 8
  %13 = alloca ptr, align 8
  store i64 %0, ptr %2, align 8, !tbaa !11
  call void @llvm.lifetime.start.p0(i64 8, ptr %3) #18
  call void @llvm.lifetime.start.p0(i64 8, ptr %4) #18
  call void @llvm.lifetime.start.p0(i64 4, ptr %5) #18
  call void @llvm.lifetime.start.p0(i64 4, ptr %6) #18
  call void @llvm.lifetime.start.p0(i64 4, ptr %7) #18
  call void @llvm.lifetime.start.p0(i64 512, ptr %8) #18
  call void @llvm.lifetime.start.p0(i64 8, ptr %9) #18
  call void @llvm.lifetime.start.p0(i64 8, ptr %10) #18
  call void @llvm.lifetime.start.p0(i64 8, ptr %11) #18
  call void @llvm.lifetime.start.p0(i64 8, ptr %12) #18
  call void @llvm.lifetime.start.p0(i64 8, ptr %13) #18
  br label %14

14:                                               ; preds = %1
  %15 = load i64, ptr %2, align 8, !tbaa !11
  %16 = call ptr @rb_check_typeddata(i64 noundef %15, ptr noundef @ossl_x509name_type)
  store ptr %16, ptr %3, align 8, !tbaa !6
  %17 = load ptr, ptr %3, align 8, !tbaa !6
  %18 = icmp ne ptr %17, null
  br i1 %18, label %21, label %19

19:                                               ; preds = %14
  %20 = load i64, ptr @rb_eRuntimeError, align 8, !tbaa !11
  call void (i64, ptr, ...) @ossl_raise(i64 noundef %20, ptr noundef @.str) #19
  unreachable

21:                                               ; preds = %14
  br label %22

22:                                               ; preds = %21
  br label %23

23:                                               ; preds = %22
  %24 = load ptr, ptr %3, align 8, !tbaa !6
  %25 = call i32 @X509_NAME_entry_count(ptr noundef %24)
  store i32 %25, ptr %6, align 4, !tbaa !17
  %26 = load i32, ptr %6, align 4, !tbaa !17
  %27 = sext i32 %26 to i64
  %28 = call i64 @rb_ary_new_capa(i64 noundef %27)
  store i64 %28, ptr %12, align 8, !tbaa !11
  store i32 0, ptr %5, align 4, !tbaa !17
  br label %29

29:                                               ; preds = %74, %23
  %30 = load i32, ptr %5, align 4, !tbaa !17
  %31 = load i32, ptr %6, align 4, !tbaa !17
  %32 = icmp slt i32 %30, %31
  br i1 %32, label %33, label %77

33:                                               ; preds = %29
  %34 = load ptr, ptr %3, align 8, !tbaa !6
  %35 = load i32, ptr %5, align 4, !tbaa !17
  %36 = call ptr @X509_NAME_get_entry(ptr noundef %34, i32 noundef %35)
  store ptr %36, ptr %4, align 8, !tbaa !25
  %37 = icmp ne ptr %36, null
  br i1 %37, label %40, label %38

38:                                               ; preds = %33
  %39 = load i64, ptr @eX509NameError, align 8, !tbaa !11
  call void (i64, ptr, ...) @ossl_raise(i64 noundef %39, ptr noundef null) #19
  unreachable

40:                                               ; preds = %33
  %41 = getelementptr inbounds [512 x i8], ptr %8, i64 0, i64 0
  %42 = load ptr, ptr %4, align 8, !tbaa !25
  %43 = call ptr @X509_NAME_ENTRY_get_object(ptr noundef %42)
  %44 = call i32 @i2t_ASN1_OBJECT(ptr noundef %41, i32 noundef 512, ptr noundef %43)
  %45 = icmp ne i32 %44, 0
  br i1 %45, label %48, label %46

46:                                               ; preds = %40
  %47 = load i64, ptr @eX509NameError, align 8, !tbaa !11
  call void (i64, ptr, ...) @ossl_raise(i64 noundef %47, ptr noundef null) #19
  unreachable

48:                                               ; preds = %40
  %49 = getelementptr inbounds [512 x i8], ptr %8, i64 0, i64 0
  %50 = call i32 @OBJ_ln2nid(ptr noundef %49)
  store i32 %50, ptr %7, align 4, !tbaa !17
  %51 = load i32, ptr %7, align 4, !tbaa !17
  %52 = icmp eq i32 %51, 0
  br i1 %52, label %53, label %55

53:                                               ; preds = %48
  %54 = call i64 @rb_str_new_cstr(ptr noundef %8)
  store i64 %54, ptr %11, align 8, !tbaa !11
  br label %60

55:                                               ; preds = %48
  %56 = load i32, ptr %7, align 4, !tbaa !17
  %57 = call ptr @OBJ_nid2sn(i32 noundef %56)
  store ptr %57, ptr %9, align 8, !tbaa !21
  %58 = load ptr, ptr %9, align 8, !tbaa !21
  %59 = call i64 @rb_str_new_cstr(ptr noundef %58)
  store i64 %59, ptr %11, align 8, !tbaa !11
  br label %60

60:                                               ; preds = %55, %53
  %61 = load ptr, ptr %4, align 8, !tbaa !25
  %62 = call ptr @X509_NAME_ENTRY_get_data(ptr noundef %61)
  store ptr %62, ptr %13, align 8, !tbaa !27
  %63 = load i64, ptr %11, align 8, !tbaa !11
  %64 = load ptr, ptr %13, align 8, !tbaa !27
  %65 = call i64 @asn1str_to_str(ptr noundef %64)
  %66 = load ptr, ptr %13, align 8, !tbaa !27
  %67 = getelementptr inbounds nuw %struct.asn1_string_st, ptr %66, i32 0, i32 1
  %68 = load i32, ptr %67, align 4, !tbaa !29
  %69 = call i64 @rb_int2num_inline(i32 noundef %68)
  %70 = call i64 (i64, ...) @rb_ary_new_from_args(i64 noundef 3, i64 noundef %63, i64 noundef %65, i64 noundef %69)
  store i64 %70, ptr %10, align 8, !tbaa !11
  %71 = load i64, ptr %12, align 8, !tbaa !11
  %72 = load i64, ptr %10, align 8, !tbaa !11
  %73 = call i64 @rb_ary_push(i64 noundef %71, i64 noundef %72)
  br label %74

74:                                               ; preds = %60
  %75 = load i32, ptr %5, align 4, !tbaa !17
  %76 = add nsw i32 %75, 1
  store i32 %76, ptr %5, align 4, !tbaa !17
  br label %29, !llvm.loop !31

77:                                               ; preds = %29
  %78 = load i64, ptr %12, align 8, !tbaa !11
  call void @llvm.lifetime.end.p0(i64 8, ptr %13) #18
  call void @llvm.lifetime.end.p0(i64 8, ptr %12) #18
  call void @llvm.lifetime.end.p0(i64 8, ptr %11) #18
  call void @llvm.lifetime.end.p0(i64 8, ptr %10) #18
  call void @llvm.lifetime.end.p0(i64 8, ptr %9) #18
  call void @llvm.lifetime.end.p0(i64 512, ptr %8) #18
  call void @llvm.lifetime.end.p0(i64 4, ptr %7) #18
  call void @llvm.lifetime.end.p0(i64 4, ptr %6) #18
  call void @llvm.lifetime.end.p0(i64 4, ptr %5) #18
  call void @llvm.lifetime.end.p0(i64 8, ptr %4) #18
  call void @llvm.lifetime.end.p0(i64 8, ptr %3) #18
  ret i64 %78
}