; Function Attrs: nounwind sspstrong uwtable
define internal i64 @ossl_x509name_to_a(i64 noundef %0) #0 {
  %2 = alloca [512 x i8], align 16
  call void @llvm.lifetime.start.p0(i64 512, ptr nonnull %2) #8
  %3 = tail call ptr @rb_check_typeddata(i64 noundef %0, ptr noundef nonnull @ossl_x509name_type) #8
  %.not = icmp eq ptr %3, null
  br i1 %.not, label %4, label %6

4:                                                ; preds = %1
  %5 = load i64, ptr @rb_eRuntimeError, align 8, !tbaa !6
  tail call void (i64, ptr, ...) @ossl_raise(i64 noundef %5, ptr noundef nonnull @.str) #9
  unreachable

6:                                                ; preds = %1
  %7 = tail call i32 @X509_NAME_entry_count(ptr noundef nonnull %3) #8
  %8 = sext i32 %7 to i64
  %9 = tail call i64 @rb_ary_new_capa(i64 noundef %8) #8
  %10 = icmp sgt i32 %7, 0
  br i1 %10, label %.lr.ph, label %._crit_edge

.lr.ph:                                           ; preds = %6, %24
  %.025 = phi i32 [ %35, %24 ], [ 0, %6 ]
  %11 = call ptr @X509_NAME_get_entry(ptr noundef nonnull %3, i32 noundef %.025) #8
  %.not23 = icmp eq ptr %11, null
  br i1 %.not23, label %12, label %14

12:                                               ; preds = %.lr.ph
  %13 = load i64, ptr @eX509NameError, align 8, !tbaa !6
  call void (i64, ptr, ...) @ossl_raise(i64 noundef %13, ptr noundef null) #9
  unreachable

14:                                               ; preds = %.lr.ph
  %15 = call ptr @X509_NAME_ENTRY_get_object(ptr noundef nonnull %11) #8
  %16 = call i32 @i2t_ASN1_OBJECT(ptr noundef nonnull %2, i32 noundef 512, ptr noundef %15) #8
  %.not24 = icmp eq i32 %16, 0
  br i1 %.not24, label %17, label %19

17:                                               ; preds = %14
  %18 = load i64, ptr @eX509NameError, align 8, !tbaa !6
  call void (i64, ptr, ...) @ossl_raise(i64 noundef %18, ptr noundef null) #9
  unreachable

19:                                               ; preds = %14
  %20 = call i32 @OBJ_ln2nid(ptr noundef nonnull %2) #8
  %21 = icmp eq i32 %20, 0
  br i1 %21, label %24, label %22

22:                                               ; preds = %19
  %23 = call ptr @OBJ_nid2sn(i32 noundef %20) #8
  br label %24

24:                                               ; preds = %19, %22
  %.sink = phi ptr [ %23, %22 ], [ %2, %19 ]
  %25 = call i64 @rb_str_new_cstr(ptr noundef %.sink) #8
  %26 = call ptr @X509_NAME_ENTRY_get_data(ptr noundef nonnull %11) #8
  %27 = call i64 @asn1str_to_str(ptr noundef %26) #8
  %28 = getelementptr inbounds nuw i8, ptr %26, i64 4
  %29 = load i32, ptr %28, align 4, !tbaa !39
  %30 = sext i32 %29 to i64
  %31 = shl nsw i64 %30, 1
  %32 = or disjoint i64 %31, 1
  %33 = call i64 (i64, ...) @rb_ary_new_from_args(i64 noundef 3, i64 noundef %25, i64 noundef %27, i64 noundef %32) #8
  %34 = call i64 @rb_ary_push(i64 noundef %9, i64 noundef %33) #8
  %35 = add nuw nsw i32 %.025, 1
  %exitcond.not = icmp eq i32 %35, %7
  br i1 %exitcond.not, label %._crit_edge, label %.lr.ph, !llvm.loop !42

._crit_edge:                                      ; preds = %24, %6
  call void @llvm.lifetime.end.p0(i64 512, ptr nonnull %2) #8
  ret i64 %9
}